target datalayout = "e-m:e-p270:32:32-p271:32:32-p272:64:64-i64:64-i128:128-f80:128-n8:16:32:64-S128"
target triple = "x86_64-pc-linux-gnu"

%struct.git_hash_algo = type { ptr, i32, i64, i64, i64, ptr, ptr, ptr, ptr, ptr, ptr, ptr, ptr, ptr }
%union.git_hash_ctx = type { %struct.SHA1_CTX }
%struct.SHA1_CTX = type { i64, [5 x i32], [64 x i8], i32, i32, i32, i32, i32, ptr, [5 x i32], [5 x i32], [80 x i32], [80 x i32], [80 x [5 x i32]] }

@.str.76 = private unnamed_addr constant [7 x i8] c"%s %lu\00", align 1

; Function Attrs: nounwind uwtable
define internal void @hash_object_body(ptr noundef %0, ptr noundef %1, ptr noundef %2, i64 noundef %3, ptr noundef %4, ptr noundef %5, ptr noundef %6) #0 {
  %8 = alloca ptr, align 8
  %9 = alloca ptr, align 8
  %10 = alloca ptr, align 8
  %11 = alloca i64, align 8
  %12 = alloca ptr, align 8
  %13 = alloca ptr, align 8
  %14 = alloca ptr, align 8
  store ptr %0, ptr %8, align 8, !tbaa !41
  store ptr %1, ptr %9, align 8, !tbaa !4
  store ptr %2, ptr %10, align 8, !tbaa !9
  store i64 %3, ptr %11, align 8, !tbaa !10
  store ptr %4, ptr %12, align 8, !tbaa !14
  store ptr %5, ptr %13, align 8, !tbaa !12
  store ptr %6, ptr %14, align 8, !tbaa !171
  %15 = load ptr, ptr %8, align 8, !tbaa !41
  %16 = getelementptr inbounds nuw %struct.git_hash_algo, ptr %15, i32 0, i32 5
  %17 = load ptr, ptr %16, align 8, !tbaa !108
  %18 = load ptr, ptr %9, align 8, !tbaa !4
  call void %17(ptr noundef %18)
  %19 = load ptr, ptr %8, align 8, !tbaa !41
  %20 = getelementptr inbounds nuw %struct.git_hash_algo, ptr %19, i32 0, i32 7
  %21 = load ptr, ptr %20, align 8, !tbaa !109
  %22 = load ptr, ptr %9, align 8, !tbaa !4
  %23 = load ptr, ptr %13, align 8, !tbaa !12
  %24 = load ptr, ptr %14, align 8, !tbaa !171
  %25 = load i32, ptr %24, align 4, !tbaa !43
  %26 = sext i32 %25 to i64
  call void %21(ptr noundef %22, ptr noundef %23, i64 noundef %26)
  %27 = load ptr, ptr %8, align 8, !tbaa !41
  %28 = getelementptr inbounds nuw %struct.git_hash_algo, ptr %27, i32 0, i32 7
  %29 = load ptr, ptr %28, align 8, !tbaa !109
  %30 = load ptr, ptr %9, align 8, !tbaa !4
  %31 = load ptr, ptr %10, align 8, !tbaa !9
  %32 = load i64, ptr %11, align 8, !tbaa !10
  call void %29(ptr noundef %30, ptr noundef %31, i64 noundef %32)
  %33 = load ptr, ptr %8, align 8, !tbaa !41
  %34 = getelementptr inbounds nuw %struct.git_hash_algo, ptr %33, i32 0, i32 9
  %35 = load ptr, ptr %34, align 8, !tbaa !110
  %36 = load ptr, ptr %12, align 8, !tbaa !14
  %37 = load ptr, ptr %9, align 8, !tbaa !4
  call void %35(ptr noundef %36, ptr noundef %37)
  ret void
}

; Function Attrs: nounwind uwtable
define internal i32 @format_object_header_literally(ptr noundef %0, i64 noundef %1, ptr noundef %2, i64 noundef %3) #0 {
  %5 = alloca ptr, align 8
  %6 = alloca i64, align 8
  %7 = alloca ptr, align 8
  %8 = alloca i64, align 8
  store ptr %0, ptr %5, align 8, !tbaa !12
  store i64 %1, ptr %6, align 8, !tbaa !10
  store ptr %2, ptr %7, align 8, !tbaa !12
  store i64 %3, ptr %8, align 8, !tbaa !10
  %9 = load ptr, ptr %5, align 8, !tbaa !12
  %10 = load i64, ptr %6, align 8, !tbaa !10
  %11 = load ptr, ptr %7, align 8, !tbaa !12
  %12 = load i64, ptr %8, align 8, !tbaa !10
  %13 = call i32 (ptr, i64, ptr, ...) @xsnprintf(ptr noundef %9, i64 noundef %10, ptr noundef @.str.76, ptr noundef %11, i64 noundef %12)
  %14 = add nsw i32 %13, 1
  ret i32 %14
}

; Function Attrs: nounwind uwtable
define internal void @write_object_file_prepare_literally(ptr noundef %0, ptr noundef %1, i64 noundef %2, ptr noundef %3, ptr noundef %4, ptr noundef %5, ptr noundef %6) #0 {
  %8 = alloca ptr, align 8
  %9 = alloca ptr, align 8
  %10 = alloca i64, align 8
  %11 = alloca ptr, align 8
  %12 = alloca ptr, align 8
  %13 = alloca ptr, align 8
  %14 = alloca ptr, align 8
  %15 = alloca %union.git_hash_ctx, align 8
  store ptr %0, ptr %8, align 8, !tbaa !41
  store ptr %1, ptr %9, align 8, !tbaa !9
  store i64 %2, ptr %10, align 8, !tbaa !10
  store ptr %3, ptr %11, align 8, !tbaa !12
  store ptr %4, ptr %12, align 8, !tbaa !14
  store ptr %5, ptr %13, align 8, !tbaa !12
  store ptr %6, ptr %14, align 8, !tbaa !171
  call void @llvm.lifetime.start.p0(i64 2400, ptr %15) #14
  %16 = load ptr, ptr %13, align 8, !tbaa !12
  %17 = load ptr, ptr %14, align 8, !tbaa !171
  %18 = load i32, ptr %17, align 4, !tbaa !43
  %19 = sext i32 %18 to i64
  %20 = load ptr, ptr %11, align 8, !tbaa !12
  %21 = load i64, ptr %10, align 8, !tbaa !10
  %22 = call i32 @format_object_header_literally(ptr noundef %16, i64 noundef %19, ptr noundef %20, i64 noundef %21)
  %23 = load ptr, ptr %14, align 8, !tbaa !171
  store i32 %22, ptr %23, align 4, !tbaa !43
  %24 = load ptr, ptr %8, align 8, !tbaa !41
  %25 = load ptr, ptr %9, align 8, !tbaa !9
  %26 = load i64, ptr %10, align 8, !tbaa !10
  %27 = load ptr, ptr %12, align 8, !tbaa !14
  %28 = load ptr, ptr %13, align 8, !tbaa !12
  %29 = load ptr, ptr %14, align 8, !tbaa !171
  call void @hash_object_body(ptr noundef %24, ptr noundef %15, ptr noundef %25, i64 noundef %26, ptr noundef %27, ptr noundef %28, ptr noundef %29)
  call void @llvm.lifetime.end.p0(i64 2400, ptr %15) #14
  ret void
}

; Function Attrs: nounwind uwtable
define internal void @hash_object_file_literally(ptr noundef %0, ptr noundef %1, i64 noundef %2, ptr noundef %3, ptr noundef %4) #0 {
  %6 = alloca ptr, align 8
  %7 = alloca ptr, align 8
  %8 = alloca i64, align 8
  %9 = alloca ptr, align 8
  %10 = alloca ptr, align 8
  %11 = alloca [32 x i8], align 16
  %12 = alloca i32, align 4
  store ptr %0, ptr %6, align 8, !tbaa !41
  store ptr %1, ptr %7, align 8, !tbaa !9
  store i64 %2, ptr %8, align 8, !tbaa !10
  store ptr %3, ptr %9, align 8, !tbaa !12
  store ptr %4, ptr %10, align 8, !tbaa !14
  call void @llvm.lifetime.start.p0(i64 32, ptr %11) #14
  call void @llvm.lifetime.start.p0(i64 4, ptr %12) #14
  store i32 32, ptr %12, align 4, !tbaa !43
  %13 = load ptr, ptr %6, align 8, !tbaa !41
  %14 = load ptr, ptr %7, align 8, !tbaa !9
  %15 = load i64, ptr %8, align 8, !tbaa !10
  %16 = load ptr, ptr %9, align 8, !tbaa !12
  %17 = load ptr, ptr %10, align 8, !tbaa !14
  %18 = getelementptr inbounds [32 x i8], ptr %11, i64 0, i64 0
  call void @write_object_file_prepare_literally(ptr noundef %13, ptr noundef %14, i64 noundef %15, ptr noundef %16, ptr noundef %17, ptr noundef %18, ptr noundef %12)
  call void @llvm.lifetime.end.p0(i64 4, ptr %12) #14
  call void @llvm.lifetime.end.p0(i64 32, ptr %11) #14
  ret void
}

; Function Attrs: nounwind uwtable
define dso_local void @hash_object_file(ptr noundef %0, ptr noundef %1, i64 noundef %2, i32 noundef %3, ptr noundef %4) #0 {
  %6 = alloca ptr, align 8
  %7 = alloca ptr, align 8
  %8 = alloca i64, align 8
  %9 = alloca i32, align 4
  %10 = alloca ptr, align 8
  store ptr %0, ptr %6, align 8, !tbaa !41
  store ptr %1, ptr %7, align 8, !tbaa !9
  store i64 %2, ptr %8, align 8, !tbaa !10
  store i32 %3, ptr %9, align 4, !tbaa !43
  store ptr %4, ptr %10, align 8, !tbaa !14
  %11 = load ptr, ptr %6, align 8, !tbaa !41
  %12 = load ptr, ptr %7, align 8, !tbaa !9
  %13 = load i64, ptr %8, align 8, !tbaa !10
  %14 = load i32, ptr %9, align 4, !tbaa !43
  %15 = call ptr @type_name(i32 noundef %14)
  %16 = load ptr, ptr %10, align 8, !tbaa !14
  call void @hash_object_file_literally(ptr noundef %11, ptr noundef %12, i64 noundef %13, ptr noundef %15, ptr noundef %16)
  ret void
}