; Function Attrs: nounwind uwtable
define dso_local void @hash_object_file(ptr noundef readonly captures(none) %0, ptr noundef %1, i64 noundef %2, i32 noundef %3, ptr noundef %4) local_unnamed_addr #1 {
  %6 = alloca %union.git_hash_ctx, align 8
  %7 = alloca [32 x i8], align 16
  %8 = tail call ptr @type_name(i32 noundef %3) #27
  call void @llvm.lifetime.start.p0(i64 32, ptr nonnull %7) #27
  call void @llvm.lifetime.start.p0(i64 2400, ptr nonnull %6) #27
  %9 = call i32 (ptr, i64, ptr, ...) @xsnprintf(ptr noundef nonnull %7, i64 noundef 32, ptr noundef nonnull @.str.76, ptr noundef %8, i64 noundef %2) #27
  %10 = add nsw i32 %9, 1
  %11 = getelementptr inbounds nuw i8, ptr %0, i64 40
  %12 = load ptr, ptr %11, align 8, !tbaa !100
  call void %12(ptr noundef nonnull %6) #27
  %13 = getelementptr inbounds nuw i8, ptr %0, i64 56
  %14 = load ptr, ptr %13, align 8, !tbaa !101
  %15 = sext i32 %10 to i64
  call void %14(ptr noundef nonnull %6, ptr noundef nonnull %7, i64 noundef %15) #27
  %16 = load ptr, ptr %13, align 8, !tbaa !101
  call void %16(ptr noundef nonnull %6, ptr noundef %1, i64 noundef %2) #27
  %17 = getelementptr inbounds nuw i8, ptr %0, i64 72
  %18 = load ptr, ptr %17, align 8, !tbaa !102
  call void %18(ptr noundef %4, ptr noundef nonnull %6) #27
  call void @llvm.lifetime.end.p0(i64 2400, ptr nonnull %6) #27
  call void @llvm.lifetime.end.p0(i64 32, ptr nonnull %7) #27
  ret void
}